; ModuleID = '51/890.c'
source_filename = "51/890.c"
target datalayout = "e-m:e-p270:32:32-p271:32:32-p272:64:64-i64:64-f80:128-n8:16:32:64-S128"
target triple = "x86_64-pc-linux-gnu"

@.str = private unnamed_addr constant [3 x i8] c"%d\00", align 1
@.str.1 = private unnamed_addr constant [3 x i8] c"%s\00", align 1
@.str.2 = private unnamed_addr constant [3 x i8] c"NO\00", align 1
@.str.3 = private unnamed_addr constant [4 x i8] c"%d\0A\00", align 1
@.str.4 = private unnamed_addr constant [3 x i8] c"%c\00", align 1
@.str.5 = private unnamed_addr constant [2 x i8] c"\0A\00", align 1

; Function Attrs: noinline nounwind uwtable
define dso_local i32 @main() #0 {
  %1 = alloca i32, align 4
  %2 = alloca i32, align 4
  %3 = alloca i32, align 4
  %4 = alloca i32, align 4
  %5 = alloca i32, align 4
  %6 = alloca i32, align 4
  %7 = alloca i32, align 4
  %8 = alloca i32, align 4
  %9 = alloca [10005 x i8], align 16
  %10 = alloca [10005 x i32], align 16
  store i32 0, i32* %1, align 4
  %11 = call i32 (i8*, ...) @__isoc99_scanf(i8* getelementptr inbounds ([3 x i8], [3 x i8]* @.str, i64 0, i64 0), i32* %2)
  %12 = bitcast [10005 x i32]* %10 to i8*
  call void @llvm.memset.p0i8.i64(i8* align 16 %12, i8 0, i64 40020, i1 false)
  %13 = getelementptr inbounds [10005 x i8], [10005 x i8]* %9, i64 0, i64 0
  %14 = call i32 (i8*, ...) @__isoc99_scanf(i8* getelementptr inbounds ([3 x i8], [3 x i8]* @.str.1, i64 0, i64 0), i8* %13)
  %15 = getelementptr inbounds [10005 x i8], [10005 x i8]* %9, i64 0, i64 0
  %16 = call i64 @strlen(i8* %15) #4
  %17 = trunc i64 %16 to i32
  store i32 %17, i32* %6, align 4
  store i32 0, i32* %3, align 4
  br label %18

18:                                               ; preds = %85, %0
  %19 = load i32, i32* %3, align 4
  %20 = load i32, i32* %6, align 4
  %21 = load i32, i32* %2, align 4
  %22 = sub nsw i32 %20, %21
  %23 = add nsw i32 %22, 1
  %24 = icmp slt i32 %19, %23
  br i1 %24, label %25, label %88

25:                                               ; preds = %18
  %26 = load i32, i32* %3, align 4
  %27 = sext i32 %26 to i64
  %28 = getelementptr inbounds [10005 x i32], [10005 x i32]* %10, i64 0, i64 %27
  %29 = load i32, i32* %28, align 4
  %30 = icmp ne i32 %29, -1
  br i1 %30, label %31, label %84

31:                                               ; preds = %25
  %32 = load i32, i32* %3, align 4
  %33 = add nsw i32 %32, 1
  store i32 %33, i32* %4, align 4
  br label %34

34:                                               ; preds = %80, %31
  %35 = load i32, i32* %4, align 4
  %36 = load i32, i32* %6, align 4
  %37 = load i32, i32* %2, align 4
  %38 = sub nsw i32 %36, %37
  %39 = add nsw i32 %38, 1
  %40 = icmp slt i32 %35, %39
  br i1 %40, label %41, label %83

41:                                               ; preds = %34
  store i32 0, i32* %7, align 4
  store i32 0, i32* %5, align 4
  br label %42

42:                                               ; preds = %64, %41
  %43 = load i32, i32* %5, align 4
  %44 = load i32, i32* %2, align 4
  %45 = icmp slt i32 %43, %44
  br i1 %45, label %46, label %67

46:                                               ; preds = %42
  %47 = load i32, i32* %3, align 4
  %48 = load i32, i32* %5, align 4
  %49 = add nsw i32 %47, %48
  %50 = sext i32 %49 to i64
  %51 = getelementptr inbounds [10005 x i8], [10005 x i8]* %9, i64 0, i64 %50
  %52 = load i8, i8* %51, align 1
  %53 = sext i8 %52 to i32
  %54 = load i32, i32* %4, align 4
  %55 = load i32, i32* %5, align 4
  %56 = add nsw i32 %54, %55
  %57 = sext i32 %56 to i64
  %58 = getelementptr inbounds [10005 x i8], [10005 x i8]* %9, i64 0, i64 %57
  %59 = load i8, i8* %58, align 1
  %60 = sext i8 %59 to i32
  %61 = icmp ne i32 %53, %60
  br i1 %61, label %62, label %63

62:                                               ; preds = %46
  store i32 1, i32* %7, align 4
  br label %67

63:                                               ; preds = %46
  br label %64

64:                                               ; preds = %63
  %65 = load i32, i32* %5, align 4
  %66 = add nsw i32 %65, 1
  store i32 %66, i32* %5, align 4
  br label %42

67:                                               ; preds = %62, %42
  %68 = load i32, i32* %7, align 4
  %69 = icmp eq i32 %68, 0
  br i1 %69, label %70, label %79

70:                                               ; preds = %67
  %71 = load i32, i32* %3, align 4
  %72 = sext i32 %71 to i64
  %73 = getelementptr inbounds [10005 x i32], [10005 x i32]* %10, i64 0, i64 %72
  %74 = load i32, i32* %73, align 4
  %75 = add nsw i32 %74, 1
  store i32 %75, i32* %73, align 4
  %76 = load i32, i32* %4, align 4
  %77 = sext i32 %76 to i64
  %78 = getelementptr inbounds [10005 x i32], [10005 x i32]* %10, i64 0, i64 %77
  store i32 -1, i32* %78, align 4
  br label %79

79:                                               ; preds = %70, %67
  br label %80

80:                                               ; preds = %79
  %81 = load i32, i32* %4, align 4
  %82 = add nsw i32 %81, 1
  store i32 %82, i32* %4, align 4
  br label %34

83:                                               ; preds = %34
  br label %84

84:                                               ; preds = %83, %25
  br label %85

85:                                               ; preds = %84
  %86 = load i32, i32* %3, align 4
  %87 = add nsw i32 %86, 1
  store i32 %87, i32* %3, align 4
  br label %18

88:                                               ; preds = %18
  store i32 0, i32* %8, align 4
  store i32 0, i32* %3, align 4
  br label %89

89:                                               ; preds = %106, %88
  %90 = load i32, i32* %3, align 4
  %91 = load i32, i32* %6, align 4
  %92 = icmp slt i32 %90, %91
  br i1 %92, label %93, label %109

93:                                               ; preds = %89
  %94 = load i32, i32* %3, align 4
  %95 = sext i32 %94 to i64
  %96 = getelementptr inbounds [10005 x i32], [10005 x i32]* %10, i64 0, i64 %95
  %97 = load i32, i32* %96, align 4
  %98 = load i32, i32* %8, align 4
  %99 = icmp sgt i32 %97, %98
  br i1 %99, label %100, label %105

100:                                              ; preds = %93
  %101 = load i32, i32* %3, align 4
  %102 = sext i32 %101 to i64
  %103 = getelementptr inbounds [10005 x i32], [10005 x i32]* %10, i64 0, i64 %102
  %104 = load i32, i32* %103, align 4
  store i32 %104, i32* %8, align 4
  br label %105

105:                                              ; preds = %100, %93
  br label %106

106:                                              ; preds = %105
  %107 = load i32, i32* %3, align 4
  %108 = add nsw i32 %107, 1
  store i32 %108, i32* %3, align 4
  br label %89

109:                                              ; preds = %89
  %110 = load i32, i32* %8, align 4
  %111 = icmp eq i32 %110, 0
  br i1 %111, label %112, label %114

112:                                              ; preds = %109
  %113 = call i32 (i8*, ...) @printf(i8* getelementptr inbounds ([3 x i8], [3 x i8]* @.str.2, i64 0, i64 0))
  br label %153

114:                                              ; preds = %109
  %115 = load i32, i32* %8, align 4
  %116 = add nsw i32 %115, 1
  %117 = call i32 (i8*, ...) @printf(i8* getelementptr inbounds ([4 x i8], [4 x i8]* @.str.3, i64 0, i64 0), i32 %116)
  store i32 0, i32* %3, align 4
  br label %118

118:                                              ; preds = %149, %114
  %119 = load i32, i32* %3, align 4
  %120 = load i32, i32* %6, align 4
  %121 = icmp slt i32 %119, %120
  br i1 %121, label %122, label %152

122:                                              ; preds = %118
  %123 = load i32, i32* %3, align 4
  %124 = sext i32 %123 to i64
  %125 = getelementptr inbounds [10005 x i32], [10005 x i32]* %10, i64 0, i64 %124
  %126 = load i32, i32* %125, align 4
  %127 = load i32, i32* %8, align 4
  %128 = icmp eq i32 %126, %127
  br i1 %128, label %129, label %148

129:                                              ; preds = %122
  store i32 0, i32* %5, align 4
  br label %130

130:                                              ; preds = %143, %129
  %131 = load i32, i32* %5, align 4
  %132 = load i32, i32* %2, align 4
  %133 = icmp slt i32 %131, %132
  br i1 %133, label %134, label %146

134:                                              ; preds = %130
  %135 = load i32, i32* %3, align 4
  %136 = load i32, i32* %5, align 4
  %137 = add nsw i32 %135, %136
  %138 = sext i32 %137 to i64
  %139 = getelementptr inbounds [10005 x i8], [10005 x i8]* %9, i64 0, i64 %138
  %140 = load i8, i8* %139, align 1
  %141 = sext i8 %140 to i32
  %142 = call i32 (i8*, ...) @printf(i8* getelementptr inbounds ([3 x i8], [3 x i8]* @.str.4, i64 0, i64 0), i32 %141)
  br label %143

143:                                              ; preds = %134
  %144 = load i32, i32* %5, align 4
  %145 = add nsw i32 %144, 1
  store i32 %145, i32* %5, align 4
  br label %130

146:                                              ; preds = %130
  %147 = call i32 (i8*, ...) @printf(i8* getelementptr inbounds ([2 x i8], [2 x i8]* @.str.5, i64 0, i64 0))
  br label %148

148:                                              ; preds = %146, %122
  br label %149

149:                                              ; preds = %148
  %150 = load i32, i32* %3, align 4
  %151 = add nsw i32 %150, 1
  store i32 %151, i32* %3, align 4
  br label %118

152:                                              ; preds = %118
  br label %153

153:                                              ; preds = %152, %112
  ret i32 0
}

declare dso_local i32 @__isoc99_scanf(i8*, ...) #1

; Function Attrs: argmemonly nounwind willreturn
declare void @llvm.memset.p0i8.i64(i8* nocapture writeonly, i8, i64, i1 immarg) #2

; Function Attrs: nounwind readonly
declare dso_local i64 @strlen(i8*) #3

declare dso_local i32 @printf(i8*, ...) #1


!llvm.module.flags = !{!0}
!llvm.ident = !{!1}

!0 = !{i32 1, !"wchar_size", i32 4}
!1 = !{!"clang version 10.0.0-4ubuntu1 "}
